target datalayout = "e-m:e-p270:32:32-p271:32:32-p272:64:64-i64:64-i128:128-f80:128-n8:16:32:64-S128"
target triple = "x86_64-pc-linux-gnu"

%struct.Gia_Obj_t_ = type <{ i64, i32 }>
%struct.Gia_Man_t_ = type { ptr, ptr, i32, i32, i32, i32, ptr, ptr, i32, i32, i32, ptr, ptr, %struct.Vec_Int_t_, %struct.Vec_Int_t_, i32, i32, i32, %struct.Vec_Int_t_, ptr, ptr, ptr, i32, i32, i32, i32, ptr, ptr, ptr, ptr, ptr, i32, i32, ptr, i32, ptr, ptr, ptr, ptr, ptr, ptr, ptr, ptr, ptr, ptr, ptr, ptr, ptr, ptr, ptr, ptr, ptr, ptr, %struct.Vec_Int_t_, %struct.Vec_Int_t_, ptr, ptr, ptr, ptr, ptr, ptr, ptr, ptr, ptr, ptr, ptr, ptr, ptr, ptr, ptr, ptr, ptr, ptr, ptr, ptr, ptr, i32, float, float, ptr, ptr, i32, ptr, ptr, ptr, ptr, ptr, ptr, ptr, ptr, ptr, ptr, ptr, ptr, ptr, ptr, ptr, i64, i64, ptr, ptr, i32, i32, i32, i32, i32, i32, i32, i32, i32, i32, i32, i32, ptr, ptr, ptr, ptr, ptr, ptr, ptr, ptr, i32, i32, i32, ptr, i32, i32, ptr, ptr, ptr, ptr, ptr, ptr, i32, i32, ptr, %struct.Vec_Int_t_, %struct.Vec_Int_t_, %struct.Vec_Int_t_, ptr, ptr, ptr }
%struct.Vec_Int_t_ = type { i32, i32, ptr }

; Function Attrs: nounwind uwtable
define internal i32 @toLitCond(i32 noundef %0, i32 noundef %1) #0 {
  %3 = alloca i32, align 4
  %4 = alloca i32, align 4
  store i32 %0, ptr %3, align 4
  store i32 %1, ptr %4, align 4
  %5 = load i32, ptr %3, align 4
  %6 = load i32, ptr %3, align 4
  %7 = add nsw i32 %5, %6
  %8 = load i32, ptr %4, align 4
  %9 = icmp ne i32 %8, 0
  %10 = zext i1 %9 to i32
  %11 = add nsw i32 %7, %10
  ret i32 %11
}

; Function Attrs: nounwind uwtable
define internal i32 @sat_solver_add_and(ptr noundef %0, i32 noundef %1, i32 noundef %2, i32 noundef %3, i32 noundef %4, i32 noundef %5, i32 noundef %6) #0 {
  %8 = alloca ptr, align 8
  %9 = alloca i32, align 4
  %10 = alloca i32, align 4
  %11 = alloca i32, align 4
  %12 = alloca i32, align 4
  %13 = alloca i32, align 4
  %14 = alloca i32, align 4
  %15 = alloca [3 x i32], align 4
  %16 = alloca i32, align 4
  store ptr %0, ptr %8, align 8
  store i32 %1, ptr %9, align 4
  store i32 %2, ptr %10, align 4
  store i32 %3, ptr %11, align 4
  store i32 %4, ptr %12, align 4
  store i32 %5, ptr %13, align 4
  store i32 %6, ptr %14, align 4
  %17 = load i32, ptr %9, align 4
  %18 = load i32, ptr %14, align 4
  %19 = icmp ne i32 %18, 0
  %20 = xor i1 %19, true
  %21 = zext i1 %20 to i32
  %22 = call i32 @toLitCond(i32 noundef %17, i32 noundef %21)
  %23 = getelementptr inbounds [3 x i32], ptr %15, i64 0, i64 0
  store i32 %22, ptr %23, align 4
  %24 = load i32, ptr %10, align 4
  %25 = load i32, ptr %12, align 4
  %26 = call i32 @toLitCond(i32 noundef %24, i32 noundef %25)
  %27 = getelementptr inbounds [3 x i32], ptr %15, i64 0, i64 1
  store i32 %26, ptr %27, align 4
  %28 = load ptr, ptr %8, align 8
  %29 = getelementptr inbounds [3 x i32], ptr %15, i64 0, i64 0
  %30 = getelementptr inbounds [3 x i32], ptr %15, i64 0, i64 0
  %31 = getelementptr inbounds i32, ptr %30, i64 2
  %32 = call i32 @sat_solver_addclause(ptr noundef %28, ptr noundef %29, ptr noundef %31)
  store i32 %32, ptr %16, align 4
  %33 = load i32, ptr %9, align 4
  %34 = load i32, ptr %14, align 4
  %35 = icmp ne i32 %34, 0
  %36 = xor i1 %35, true
  %37 = zext i1 %36 to i32
  %38 = call i32 @toLitCond(i32 noundef %33, i32 noundef %37)
  %39 = getelementptr inbounds [3 x i32], ptr %15, i64 0, i64 0
  store i32 %38, ptr %39, align 4
  %40 = load i32, ptr %11, align 4
  %41 = load i32, ptr %13, align 4
  %42 = call i32 @toLitCond(i32 noundef %40, i32 noundef %41)
  %43 = getelementptr inbounds [3 x i32], ptr %15, i64 0, i64 1
  store i32 %42, ptr %43, align 4
  %44 = load ptr, ptr %8, align 8
  %45 = getelementptr inbounds [3 x i32], ptr %15, i64 0, i64 0
  %46 = getelementptr inbounds [3 x i32], ptr %15, i64 0, i64 0
  %47 = getelementptr inbounds i32, ptr %46, i64 2
  %48 = call i32 @sat_solver_addclause(ptr noundef %44, ptr noundef %45, ptr noundef %47)
  store i32 %48, ptr %16, align 4
  %49 = load i32, ptr %9, align 4
  %50 = load i32, ptr %14, align 4
  %51 = call i32 @toLitCond(i32 noundef %49, i32 noundef %50)
  %52 = getelementptr inbounds [3 x i32], ptr %15, i64 0, i64 0
  store i32 %51, ptr %52, align 4
  %53 = load i32, ptr %10, align 4
  %54 = load i32, ptr %12, align 4
  %55 = icmp ne i32 %54, 0
  %56 = xor i1 %55, true
  %57 = zext i1 %56 to i32
  %58 = call i32 @toLitCond(i32 noundef %53, i32 noundef %57)
  %59 = getelementptr inbounds [3 x i32], ptr %15, i64 0, i64 1
  store i32 %58, ptr %59, align 4
  %60 = load i32, ptr %11, align 4
  %61 = load i32, ptr %13, align 4
  %62 = icmp ne i32 %61, 0
  %63 = xor i1 %62, true
  %64 = zext i1 %63 to i32
  %65 = call i32 @toLitCond(i32 noundef %60, i32 noundef %64)
  %66 = getelementptr inbounds [3 x i32], ptr %15, i64 0, i64 2
  store i32 %65, ptr %66, align 4
  %67 = load ptr, ptr %8, align 8
  %68 = getelementptr inbounds [3 x i32], ptr %15, i64 0, i64 0
  %69 = getelementptr inbounds [3 x i32], ptr %15, i64 0, i64 0
  %70 = getelementptr inbounds i32, ptr %69, i64 3
  %71 = call i32 @sat_solver_addclause(ptr noundef %67, ptr noundef %68, ptr noundef %70)
  store i32 %71, ptr %16, align 4
  ret i32 3
}

; Function Attrs: nounwind uwtable
define internal i32 @Gia_ObjFaninC1(ptr noundef %0) #0 {
  %2 = alloca ptr, align 8
  store ptr %0, ptr %2, align 8
  %3 = load ptr, ptr %2, align 8
  %4 = load i64, ptr %3, align 4
  %5 = lshr i64 %4, 61
  %6 = and i64 %5, 1
  %7 = trunc i64 %6 to i32
  ret i32 %7
}

; Function Attrs: nounwind uwtable
define internal i32 @Gia_ObjFaninC0(ptr noundef %0) #0 {
  %2 = alloca ptr, align 8
  store ptr %0, ptr %2, align 8
  %3 = load ptr, ptr %2, align 8
  %4 = load i64, ptr %3, align 4
  %5 = lshr i64 %4, 29
  %6 = and i64 %5, 1
  %7 = trunc i64 %6 to i32
  ret i32 %7
}

; Function Attrs: nounwind uwtable
define internal i32 @Gia_ObjFaninId1(ptr noundef %0, i32 noundef %1) #0 {
  %3 = alloca ptr, align 8
  %4 = alloca i32, align 4
  store ptr %0, ptr %3, align 8
  store i32 %1, ptr %4, align 4
  %5 = load i32, ptr %4, align 4
  %6 = load ptr, ptr %3, align 8
  %7 = load i64, ptr %6, align 4
  %8 = lshr i64 %7, 32
  %9 = and i64 %8, 536870911
  %10 = trunc i64 %9 to i32
  %11 = sub nsw i32 %5, %10
  ret i32 %11
}

; Function Attrs: nounwind uwtable
define internal i32 @Gia_ObjFaninId0(ptr noundef %0, i32 noundef %1) #0 {
  %3 = alloca ptr, align 8
  %4 = alloca i32, align 4
  store ptr %0, ptr %3, align 8
  store i32 %1, ptr %4, align 4
  %5 = load i32, ptr %4, align 4
  %6 = load ptr, ptr %3, align 8
  %7 = load i64, ptr %6, align 4
  %8 = and i64 %7, 536870911
  %9 = trunc i64 %8 to i32
  %10 = sub nsw i32 %5, %9
  ret i32 %10
}

; Function Attrs: nounwind uwtable
define internal i32 @Gia_ObjIsAnd(ptr noundef %0) #0 {
  %2 = alloca ptr, align 8
  store ptr %0, ptr %2, align 8
  %3 = load ptr, ptr %2, align 8
  %4 = load i64, ptr %3, align 4
  %5 = lshr i64 %4, 31
  %6 = and i64 %5, 1
  %7 = trunc i64 %6 to i32
  %8 = icmp ne i32 %7, 0
  br i1 %8, label %15, label %9

9:                                                ; preds = %1
  %10 = load ptr, ptr %2, align 8
  %11 = load i64, ptr %10, align 4
  %12 = and i64 %11, 536870911
  %13 = trunc i64 %12 to i32
  %14 = icmp ne i32 %13, 536870911
  br label %15

15:                                               ; preds = %9, %1
  %16 = phi i1 [ false, %1 ], [ %14, %9 ]
  %17 = zext i1 %16 to i32
  ret i32 %17
}

; Function Attrs: nounwind uwtable
define internal ptr @Gia_ManObj(ptr noundef %0, i32 noundef %1) #0 {
  %3 = alloca ptr, align 8
  %4 = alloca i32, align 4
  store ptr %0, ptr %3, align 8
  store i32 %1, ptr %4, align 4
  %5 = load ptr, ptr %3, align 8
  %6 = getelementptr inbounds %struct.Gia_Man_t_, ptr %5, i32 0, i32 6
  %7 = load ptr, ptr %6, align 8
  %8 = load i32, ptr %4, align 4
  %9 = sext i32 %8 to i64
  %10 = getelementptr inbounds %struct.Gia_Obj_t_, ptr %7, i64 %9
  ret ptr %10
}

; Function Attrs: nounwind uwtable
define internal void @Vec_IntWriteEntry(ptr noundef %0, i32 noundef %1, i32 noundef %2) #0 {
  %4 = alloca ptr, align 8
  %5 = alloca i32, align 4
  %6 = alloca i32, align 4
  store ptr %0, ptr %4, align 8
  store i32 %1, ptr %5, align 4
  store i32 %2, ptr %6, align 4
  %7 = load i32, ptr %6, align 4
  %8 = load ptr, ptr %4, align 8
  %9 = getelementptr inbounds %struct.Vec_Int_t_, ptr %8, i32 0, i32 2
  %10 = load ptr, ptr %9, align 8
  %11 = load i32, ptr %5, align 4
  %12 = sext i32 %11 to i64
  %13 = getelementptr inbounds i32, ptr %10, i64 %12
  store i32 %7, ptr %13, align 4
  ret void
}

; Function Attrs: nounwind uwtable
define internal i32 @Vec_IntEntry(ptr noundef %0, i32 noundef %1) #0 {
  %3 = alloca ptr, align 8
  %4 = alloca i32, align 4
  store ptr %0, ptr %3, align 8
  store i32 %1, ptr %4, align 4
  %5 = load ptr, ptr %3, align 8
  %6 = getelementptr inbounds %struct.Vec_Int_t_, ptr %5, i32 0, i32 2
  %7 = load ptr, ptr %6, align 8
  %8 = load i32, ptr %4, align 4
  %9 = sext i32 %8 to i64
  %10 = getelementptr inbounds i32, ptr %7, i64 %9
  %11 = load i32, ptr %10, align 4
  ret i32 %11
}

; Function Attrs: nounwind uwtable
define internal i32 @Gia_ManTestOnePair_rec(ptr noundef %0, ptr noundef %1, i32 noundef %2, ptr noundef %3) #0 {
  %5 = alloca i32, align 4
  %6 = alloca ptr, align 8
  %7 = alloca ptr, align 8
  %8 = alloca i32, align 4
  %9 = alloca ptr, align 8
  %10 = alloca ptr, align 8
  %11 = alloca i32, align 4
  %12 = alloca i32, align 4
  %13 = alloca i32, align 4
  store ptr %0, ptr %6, align 8
  store ptr %1, ptr %7, align 8
  store i32 %2, ptr %8, align 4
  store ptr %3, ptr %9, align 8
  %14 = load ptr, ptr %9, align 8
  %15 = load i32, ptr %8, align 4
  %16 = call i32 @Vec_IntEntry(ptr noundef %14, i32 noundef %15)
  %17 = icmp sge i32 %16, 0
  br i1 %17, label %18, label %22

18:                                               ; preds = %4
  %19 = load ptr, ptr %9, align 8
  %20 = load i32, ptr %8, align 4
  %21 = call i32 @Vec_IntEntry(ptr noundef %19, i32 noundef %20)
  store i32 %21, ptr %5, align 4
  br label %60

22:                                               ; preds = %4
  %23 = load ptr, ptr %6, align 8
  %24 = call i32 @sat_solver_addvar(ptr noundef %23)
  store i32 %24, ptr %11, align 4
  %25 = load ptr, ptr %9, align 8
  %26 = load i32, ptr %8, align 4
  %27 = load i32, ptr %11, align 4
  call void @Vec_IntWriteEntry(ptr noundef %25, i32 noundef %26, i32 noundef %27)
  %28 = load ptr, ptr %7, align 8
  %29 = load i32, ptr %8, align 4
  %30 = call ptr @Gia_ManObj(ptr noundef %28, i32 noundef %29)
  store ptr %30, ptr %10, align 8
  %31 = load ptr, ptr %10, align 8
  %32 = call i32 @Gia_ObjIsAnd(ptr noundef %31)
  %33 = icmp ne i32 %32, 0
  br i1 %33, label %34, label %58

34:                                               ; preds = %22
  %35 = load ptr, ptr %6, align 8
  %36 = load ptr, ptr %7, align 8
  %37 = load ptr, ptr %10, align 8
  %38 = load i32, ptr %8, align 4
  %39 = call i32 @Gia_ObjFaninId0(ptr noundef %37, i32 noundef %38)
  %40 = load ptr, ptr %9, align 8
  %41 = call i32 @Gia_ManTestOnePair_rec(ptr noundef %35, ptr noundef %36, i32 noundef %39, ptr noundef %40)
  store i32 %41, ptr %12, align 4
  %42 = load ptr, ptr %6, align 8
  %43 = load ptr, ptr %7, align 8
  %44 = load ptr, ptr %10, align 8
  %45 = load i32, ptr %8, align 4
  %46 = call i32 @Gia_ObjFaninId1(ptr noundef %44, i32 noundef %45)
  %47 = load ptr, ptr %9, align 8
  %48 = call i32 @Gia_ManTestOnePair_rec(ptr noundef %42, ptr noundef %43, i32 noundef %46, ptr noundef %47)
  store i32 %48, ptr %13, align 4
  %49 = load ptr, ptr %6, align 8
  %50 = load i32, ptr %11, align 4
  %51 = load i32, ptr %12, align 4
  %52 = load i32, ptr %13, align 4
  %53 = load ptr, ptr %10, align 8
  %54 = call i32 @Gia_ObjFaninC0(ptr noundef %53)
  %55 = load ptr, ptr %10, align 8
  %56 = call i32 @Gia_ObjFaninC1(ptr noundef %55)
  %57 = call i32 @sat_solver_add_and(ptr noundef %49, i32 noundef %50, i32 noundef %51, i32 noundef %52, i32 noundef %54, i32 noundef %56, i32 noundef 0)
  br label %58

58:                                               ; preds = %34, %22
  %59 = load i32, ptr %11, align 4
  store i32 %59, ptr %5, align 4
  br label %60

60:                                               ; preds = %58, %18
  %61 = load i32, ptr %5, align 4
  ret i32 %61
}