; Function Attrs: nounwind uwtable
define internal fastcc i32 @Gia_ManTestOnePair_rec(ptr noundef %0, ptr noundef %1, i32 noundef %2, ptr noundef %3) unnamed_addr #3 {
  %5 = alloca [3 x i32], align 4
  %6 = getelementptr i8, ptr %3, i64 8
  %.val28 = load ptr, ptr %6, align 8
  %7 = sext i32 %2 to i64
  %8 = getelementptr inbounds i32, ptr %.val28, i64 %7
  %9 = load i32, ptr %8, align 4
  %10 = icmp sgt i32 %9, -1
  br i1 %10, label %common.ret37, label %11

11:                                               ; preds = %4
  %12 = tail call i32 @sat_solver_addvar(ptr noundef %0) #19
  %.val33 = load ptr, ptr %6, align 8
  %13 = getelementptr inbounds i32, ptr %.val33, i64 %7
  store i32 %12, ptr %13, align 4
  %14 = getelementptr i8, ptr %1, i64 32
  %.val29 = load ptr, ptr %14, align 8
  %15 = getelementptr inbounds %struct.Gia_Obj_t_, ptr %.val29, i64 %7
  %.val30 = load i64, ptr %15, align 4
  %16 = and i64 %.val30, 2147483648
  %.not.i = icmp ne i64 %16, 0
  %17 = and i64 %.val30, 536870911
  %18 = icmp eq i64 %17, 536870911
  %narrow.i.not = or i1 %.not.i, %18
  br i1 %narrow.i.not, label %common.ret37, label %19

common.ret37:                                     ; preds = %4, %11, %19
  %common.ret37.op = phi i32 [ %12, %19 ], [ %12, %11 ], [ %9, %4 ]
  ret i32 %common.ret37.op

19:                                               ; preds = %11
  %20 = trunc i64 %.val30 to i32
  %21 = and i32 %20, 536870911
  %22 = sub nsw i32 %2, %21
  %23 = tail call fastcc i32 @Gia_ManTestOnePair_rec(ptr noundef %0, ptr noundef nonnull %1, i32 noundef %22, ptr noundef nonnull %3)
  %.val35 = load i64, ptr %15, align 4
  %24 = lshr i64 %.val35, 32
  %25 = trunc nuw i64 %24 to i32
  %26 = and i32 %25, 536870911
  %27 = sub nsw i32 %2, %26
  %28 = tail call fastcc i32 @Gia_ManTestOnePair_rec(ptr noundef %0, ptr noundef nonnull %1, i32 noundef %27, ptr noundef nonnull %3)
  %.val31 = load i64, ptr %15, align 4
  %29 = trunc i64 %.val31 to i32
  %30 = lshr i32 %29, 29
  %31 = and i32 %30, 1
  %32 = lshr i64 %.val31, 61
  %33 = trunc nuw nsw i64 %32 to i32
  %34 = and i32 %33, 1
  call void @llvm.lifetime.start.p0(i64 12, ptr nonnull %5)
  %35 = shl nsw i32 %12, 1
  %36 = or disjoint i32 %35, 1
  store i32 %36, ptr %5, align 4
  %37 = shl nsw i32 %23, 1
  %38 = or disjoint i32 %31, %37
  %39 = getelementptr inbounds nuw i8, ptr %5, i64 4
  store i32 %38, ptr %39, align 4
  %40 = getelementptr inbounds nuw i8, ptr %5, i64 8
  %41 = call i32 @sat_solver_addclause(ptr noundef %0, ptr noundef nonnull %5, ptr noundef nonnull %40) #19
  store i32 %36, ptr %5, align 4
  %42 = shl nsw i32 %28, 1
  %43 = or disjoint i32 %34, %42
  store i32 %43, ptr %39, align 4
  %44 = call i32 @sat_solver_addclause(ptr noundef %0, ptr noundef nonnull %5, ptr noundef nonnull %40) #19
  store i32 %35, ptr %5, align 4
  %45 = xor i32 %38, 1
  store i32 %45, ptr %39, align 4
  %46 = xor i32 %43, 1
  store i32 %46, ptr %40, align 4
  %47 = getelementptr inbounds nuw i8, ptr %5, i64 12
  %48 = call i32 @sat_solver_addclause(ptr noundef %0, ptr noundef nonnull %5, ptr noundef nonnull %47) #19
  call void @llvm.lifetime.end.p0(i64 12, ptr nonnull %5)
  br label %common.ret37
}